target datalayout = "e-m:e-p270:32:32-p271:32:32-p272:64:64-i64:64-i128:128-f80:128-n8:16:32:64-S128"
target triple = "x86_64-unknown-linux-gnu"

%"class.Imf_3_2::RleCompressor" = type { %"class.Imf_3_2::Compressor", i32, ptr, ptr }
%"class.Imf_3_2::Compressor" = type { ptr, ptr }

; Function Attrs: mustprogress uwtable
define hidden noundef i32 @_ZN7Imf_3_213RleCompressor8compressEPKciiRS2_(ptr noundef nonnull align 8 dereferenceable(40) %this, ptr noundef %inPtr, i32 noundef %inSize, i32 noundef %minY, ptr noundef nonnull align 8 dereferenceable(8) %outPtr) unnamed_addr #4 align 2 {
entry:
  %retval = alloca i32, align 4
  %this.addr = alloca ptr, align 8
  %inPtr.addr = alloca ptr, align 8
  %inSize.addr = alloca i32, align 4
  %minY.addr = alloca i32, align 4
  %outPtr.addr = alloca ptr, align 8
  %t1 = alloca ptr, align 8
  %t2 = alloca ptr, align 8
  %stop = alloca ptr, align 8
  %t = alloca ptr, align 8
  %stop17 = alloca ptr, align 8
  %p = alloca i32, align 4
  %d = alloca i32, align 4
  store ptr %this, ptr %this.addr, align 8
  store ptr %inPtr, ptr %inPtr.addr, align 8
  store i32 %inSize, ptr %inSize.addr, align 4
  store i32 %minY, ptr %minY.addr, align 4
  store ptr %outPtr, ptr %outPtr.addr, align 8
  %this1 = load ptr, ptr %this.addr, align 8
  %0 = load i32, ptr %inSize.addr, align 4
  %cmp = icmp eq i32 %0, 0
  br i1 %cmp, label %if.then, label %if.end

if.then:                                          ; preds = %entry
  %_outBuffer = getelementptr inbounds %"class.Imf_3_2::RleCompressor", ptr %this1, i32 0, i32 3
  %1 = load ptr, ptr %_outBuffer, align 8
  %2 = load ptr, ptr %outPtr.addr, align 8
  store ptr %1, ptr %2, align 8
  store i32 0, ptr %retval, align 4
  br label %return

if.end:                                           ; preds = %entry
  %_tmpBuffer = getelementptr inbounds %"class.Imf_3_2::RleCompressor", ptr %this1, i32 0, i32 2
  %3 = load ptr, ptr %_tmpBuffer, align 8
  store ptr %3, ptr %t1, align 8
  %_tmpBuffer2 = getelementptr inbounds %"class.Imf_3_2::RleCompressor", ptr %this1, i32 0, i32 2
  %4 = load ptr, ptr %_tmpBuffer2, align 8
  %5 = load i32, ptr %inSize.addr, align 4
  %add = add nsw i32 %5, 1
  %div = sdiv i32 %add, 2
  %idx.ext = sext i32 %div to i64
  %add.ptr = getelementptr inbounds i8, ptr %4, i64 %idx.ext
  store ptr %add.ptr, ptr %t2, align 8
  %6 = load ptr, ptr %inPtr.addr, align 8
  %7 = load i32, ptr %inSize.addr, align 4
  %idx.ext3 = sext i32 %7 to i64
  %add.ptr4 = getelementptr inbounds i8, ptr %6, i64 %idx.ext3
  store ptr %add.ptr4, ptr %stop, align 8
  br label %while.body

while.body:                                       ; preds = %if.end14, %if.end
  %8 = load ptr, ptr %inPtr.addr, align 8
  %9 = load ptr, ptr %stop, align 8
  %cmp5 = icmp ult ptr %8, %9
  br i1 %cmp5, label %if.then6, label %if.else

if.then6:                                         ; preds = %while.body
  %10 = load ptr, ptr %inPtr.addr, align 8
  %incdec.ptr = getelementptr inbounds i8, ptr %10, i32 1
  store ptr %incdec.ptr, ptr %inPtr.addr, align 8
  %11 = load i8, ptr %10, align 1
  %12 = load ptr, ptr %t1, align 8
  %incdec.ptr7 = getelementptr inbounds i8, ptr %12, i32 1
  store ptr %incdec.ptr7, ptr %t1, align 8
  store i8 %11, ptr %12, align 1
  br label %if.end8

if.else:                                          ; preds = %while.body
  br label %while.end

if.end8:                                          ; preds = %if.then6
  %13 = load ptr, ptr %inPtr.addr, align 8
  %14 = load ptr, ptr %stop, align 8
  %cmp9 = icmp ult ptr %13, %14
  br i1 %cmp9, label %if.then10, label %if.else13

if.then10:                                        ; preds = %if.end8
  %15 = load ptr, ptr %inPtr.addr, align 8
  %incdec.ptr11 = getelementptr inbounds i8, ptr %15, i32 1
  store ptr %incdec.ptr11, ptr %inPtr.addr, align 8
  %16 = load i8, ptr %15, align 1
  %17 = load ptr, ptr %t2, align 8
  %incdec.ptr12 = getelementptr inbounds i8, ptr %17, i32 1
  store ptr %incdec.ptr12, ptr %t2, align 8
  store i8 %16, ptr %17, align 1
  br label %if.end14

if.else13:                                        ; preds = %if.end8
  br label %while.end

if.end14:                                         ; preds = %if.then10
  br label %while.body, !llvm.loop !4

while.end:                                        ; preds = %if.else13, %if.else
  %_tmpBuffer15 = getelementptr inbounds %"class.Imf_3_2::RleCompressor", ptr %this1, i32 0, i32 2
  %18 = load ptr, ptr %_tmpBuffer15, align 8
  %add.ptr16 = getelementptr inbounds i8, ptr %18, i64 1
  store ptr %add.ptr16, ptr %t, align 8
  %_tmpBuffer18 = getelementptr inbounds %"class.Imf_3_2::RleCompressor", ptr %this1, i32 0, i32 2
  %19 = load ptr, ptr %_tmpBuffer18, align 8
  %20 = load i32, ptr %inSize.addr, align 4
  %idx.ext19 = sext i32 %20 to i64
  %add.ptr20 = getelementptr inbounds i8, ptr %19, i64 %idx.ext19
  store ptr %add.ptr20, ptr %stop17, align 8
  %21 = load ptr, ptr %t, align 8
  %arrayidx = getelementptr inbounds i8, ptr %21, i64 -1
  %22 = load i8, ptr %arrayidx, align 1
  %conv = zext i8 %22 to i32
  store i32 %conv, ptr %p, align 4
  br label %while.cond

while.cond:                                       ; preds = %while.body22, %while.end
  %23 = load ptr, ptr %t, align 8
  %24 = load ptr, ptr %stop17, align 8
  %cmp21 = icmp ult ptr %23, %24
  br i1 %cmp21, label %while.body22, label %while.end31

while.body22:                                     ; preds = %while.cond
  %25 = load ptr, ptr %t, align 8
  %arrayidx23 = getelementptr inbounds i8, ptr %25, i64 0
  %26 = load i8, ptr %arrayidx23, align 1
  %conv24 = zext i8 %26 to i32
  %27 = load i32, ptr %p, align 4
  %sub = sub nsw i32 %conv24, %27
  %add25 = add nsw i32 %sub, 384
  store i32 %add25, ptr %d, align 4
  %28 = load ptr, ptr %t, align 8
  %arrayidx26 = getelementptr inbounds i8, ptr %28, i64 0
  %29 = load i8, ptr %arrayidx26, align 1
  %conv27 = zext i8 %29 to i32
  store i32 %conv27, ptr %p, align 4
  %30 = load i32, ptr %d, align 4
  %conv28 = trunc i32 %30 to i8
  %31 = load ptr, ptr %t, align 8
  %arrayidx29 = getelementptr inbounds i8, ptr %31, i64 0
  store i8 %conv28, ptr %arrayidx29, align 1
  %32 = load ptr, ptr %t, align 8
  %incdec.ptr30 = getelementptr inbounds i8, ptr %32, i32 1
  store ptr %incdec.ptr30, ptr %t, align 8
  br label %while.cond, !llvm.loop !6

while.end31:                                      ; preds = %while.cond
  %_outBuffer32 = getelementptr inbounds %"class.Imf_3_2::RleCompressor", ptr %this1, i32 0, i32 3
  %33 = load ptr, ptr %_outBuffer32, align 8
  %34 = load ptr, ptr %outPtr.addr, align 8
  store ptr %33, ptr %34, align 8
  %35 = load i32, ptr %inSize.addr, align 4
  %_tmpBuffer33 = getelementptr inbounds %"class.Imf_3_2::RleCompressor", ptr %this1, i32 0, i32 2
  %36 = load ptr, ptr %_tmpBuffer33, align 8
  %_outBuffer34 = getelementptr inbounds %"class.Imf_3_2::RleCompressor", ptr %this1, i32 0, i32 3
  %37 = load ptr, ptr %_outBuffer34, align 8
  %call = call noundef i32 @_ZN7Imf_3_211rleCompressEiPKcPa(i32 noundef %35, ptr noundef %36, ptr noundef %37)
  store i32 %call, ptr %retval, align 4
  br label %return

return:                                           ; preds = %while.end31, %if.then
  %38 = load i32, ptr %retval, align 4
  ret i32 %38
}