; Function Attrs: mustprogress uwtable
define hidden noundef i32 @_ZN7Imf_3_213RleCompressor8compressEPKciiRS2_(ptr nocapture noundef nonnull readonly align 8 dereferenceable(40) %this, ptr noundef readonly %inPtr, i32 noundef %inSize, i32 %minY, ptr nocapture noundef nonnull writeonly align 8 dereferenceable(8) %outPtr) unnamed_addr #3 align 2 {
entry:
  %cmp = icmp eq i32 %inSize, 0
  br i1 %cmp, label %if.then, label %if.end

if.then:                                          ; preds = %entry
  %_outBuffer = getelementptr inbounds i8, ptr %this, i64 32
  %0 = load ptr, ptr %_outBuffer, align 8
  store ptr %0, ptr %outPtr, align 8
  br label %return

if.end:                                           ; preds = %entry
  %_tmpBuffer = getelementptr inbounds i8, ptr %this, i64 24
  %idx.ext3 = sext i32 %inSize to i64
  %add.ptr4 = getelementptr inbounds i8, ptr %inPtr, i64 %idx.ext3
  %cmp516 = icmp sgt i32 %inSize, 0
  br i1 %cmp516, label %if.then6.preheader, label %while.end31

if.then6.preheader:                               ; preds = %if.end
  %1 = load ptr, ptr %_tmpBuffer, align 8
  %add = add nuw nsw i32 %inSize, 1
  %div2627 = lshr i32 %add, 1
  %idx.ext = zext nneg i32 %div2627 to i64
  %add.ptr = getelementptr inbounds i8, ptr %1, i64 %idx.ext
  br label %if.then6

if.then6:                                         ; preds = %if.then6.preheader, %if.then10
  %inPtr.addr.019 = phi ptr [ %incdec.ptr11, %if.then10 ], [ %inPtr, %if.then6.preheader ]
  %t1.018 = phi ptr [ %incdec.ptr7, %if.then10 ], [ %1, %if.then6.preheader ]
  %t2.017 = phi ptr [ %incdec.ptr12, %if.then10 ], [ %add.ptr, %if.then6.preheader ]
  %incdec.ptr = getelementptr inbounds i8, ptr %inPtr.addr.019, i64 1
  %2 = load i8, ptr %inPtr.addr.019, align 1
  store i8 %2, ptr %t1.018, align 1
  %cmp9 = icmp ult ptr %incdec.ptr, %add.ptr4
  br i1 %cmp9, label %if.then10, label %while.end

if.then10:                                        ; preds = %if.then6
  %incdec.ptr7 = getelementptr inbounds i8, ptr %t1.018, i64 1
  %incdec.ptr11 = getelementptr inbounds i8, ptr %inPtr.addr.019, i64 2
  %3 = load i8, ptr %incdec.ptr, align 1
  %incdec.ptr12 = getelementptr inbounds i8, ptr %t2.017, i64 1
  store i8 %3, ptr %t2.017, align 1
  %cmp5 = icmp ult ptr %incdec.ptr11, %add.ptr4
  br i1 %cmp5, label %if.then6, label %while.end, !llvm.loop !4

while.end:                                        ; preds = %if.then10, %if.then6
  %.pre = load ptr, ptr %_tmpBuffer, align 8
  %add.ptr20 = getelementptr inbounds i8, ptr %.pre, i64 %idx.ext3
  %cmp2121.not = icmp eq i32 %inSize, 1
  br i1 %cmp2121.not, label %while.end31, label %while.body22.preheader

while.body22.preheader:                           ; preds = %while.end
  %t.020 = getelementptr inbounds i8, ptr %.pre, i64 1
  %4 = load i8, ptr %.pre, align 1
  br label %while.body22

while.body22:                                     ; preds = %while.body22.preheader, %while.body22
  %t.023 = phi ptr [ %t.0, %while.body22 ], [ %t.020, %while.body22.preheader ]
  %p.022 = phi i8 [ %5, %while.body22 ], [ %4, %while.body22.preheader ]
  %5 = load i8, ptr %t.023, align 1
  %sub = sub i8 %5, %p.022
  %add25 = xor i8 %sub, -128
  store i8 %add25, ptr %t.023, align 1
  %t.0 = getelementptr inbounds i8, ptr %t.023, i64 1
  %cmp21 = icmp ult ptr %t.0, %add.ptr20
  br i1 %cmp21, label %while.body22, label %while.end31, !llvm.loop !6

while.end31:                                      ; preds = %while.body22, %if.end, %while.end
  %_outBuffer32 = getelementptr inbounds i8, ptr %this, i64 32
  %6 = load ptr, ptr %_outBuffer32, align 8
  store ptr %6, ptr %outPtr, align 8
  %7 = load ptr, ptr %_tmpBuffer, align 8
  %call = tail call noundef i32 @_ZN7Imf_3_211rleCompressEiPKcPa(i32 noundef %inSize, ptr noundef %7, ptr noundef %6)
  br label %return

return:                                           ; preds = %while.end31, %if.then
  %retval.0 = phi i32 [ 0, %if.then ], [ %call, %while.end31 ]
  ret i32 %retval.0
}